; Function Attrs: nounwind uwtable
define void @Wln_RetMarkPaths(ptr noundef %0, i32 noundef %1) local_unnamed_addr #4 {
  %3 = getelementptr inbounds nuw i8, ptr %0, i64 176
  %4 = load i32, ptr %3, align 8, !tbaa !84
  %5 = add nsw i32 %4, 1
  store i32 %5, ptr %3, align 8, !tbaa !84
  %.not.i = icmp eq i32 %4, 0
  br i1 %.not.i, label %6, label %Wln_NtkIncrementTravId.exit

6:                                                ; preds = %2
  %7 = getelementptr inbounds nuw i8, ptr %0, i64 184
  %8 = getelementptr inbounds nuw i8, ptr %0, i64 72
  %.val.i = load i32, ptr %8, align 8, !tbaa !33
  %9 = load i32, ptr %7, align 8, !tbaa !33
  %.not.i.i.i = icmp slt i32 %9, %.val.i
  br i1 %.not.i.i.i, label %10, label %Vec_IntGrow.exit.i.i

10:                                               ; preds = %6
  %11 = getelementptr inbounds nuw i8, ptr %0, i64 192
  %12 = load ptr, ptr %11, align 8, !tbaa !12
  %.not9.i.i.i = icmp eq ptr %12, null
  %13 = sext i32 %.val.i to i64
  %14 = shl nsw i64 %13, 2
  br i1 %.not9.i.i.i, label %17, label %15

15:                                               ; preds = %10
  %16 = tail call ptr @realloc(ptr noundef nonnull %12, i64 noundef %14) #24
  br label %19

17:                                               ; preds = %10
  %18 = tail call noalias ptr @malloc(i64 noundef %14) #23
  br label %19

19:                                               ; preds = %17, %15
  %20 = phi ptr [ %16, %15 ], [ %18, %17 ]
  store ptr %20, ptr %11, align 8, !tbaa !12
  store i32 %.val.i, ptr %7, align 8, !tbaa !33
  br label %Vec_IntGrow.exit.i.i

Vec_IntGrow.exit.i.i:                             ; preds = %19, %6
  %21 = icmp sgt i32 %.val.i, 0
  br i1 %21, label %.lr.ph.i.i, label %Vec_IntFill.exit.i

.lr.ph.i.i:                                       ; preds = %Vec_IntGrow.exit.i.i
  %22 = getelementptr inbounds nuw i8, ptr %0, i64 192
  %23 = load ptr, ptr %22, align 8, !tbaa !12
  %wide.trip.count.i.i = zext nneg i32 %.val.i to i64
  %24 = shl nuw nsw i64 %wide.trip.count.i.i, 2
  tail call void @llvm.memset.p0.i64(ptr align 4 %23, i8 0, i64 %24, i1 false), !tbaa !13
  br label %Vec_IntFill.exit.i

Vec_IntFill.exit.i:                               ; preds = %.lr.ph.i.i, %Vec_IntGrow.exit.i.i
  %25 = getelementptr inbounds nuw i8, ptr %0, i64 188
  store i32 %.val.i, ptr %25, align 4, !tbaa !26
  %.pr = load i32, ptr %3, align 8, !tbaa !84
  br label %Wln_NtkIncrementTravId.exit

Wln_NtkIncrementTravId.exit:                      ; preds = %2, %Vec_IntFill.exit.i
  %26 = phi i32 [ %5, %2 ], [ %.pr, %Vec_IntFill.exit.i ]
  %27 = add nsw i32 %26, 1
  store i32 %27, ptr %3, align 8, !tbaa !84
  %.not.i27 = icmp eq i32 %26, 0
  br i1 %.not.i27, label %28, label %Wln_NtkIncrementTravId.exit35

28:                                               ; preds = %Wln_NtkIncrementTravId.exit
  %29 = getelementptr inbounds nuw i8, ptr %0, i64 184
  %30 = getelementptr inbounds nuw i8, ptr %0, i64 72
  %.val.i28 = load i32, ptr %30, align 8, !tbaa !33
  %31 = load i32, ptr %29, align 8, !tbaa !33
  %.not.i.i.i29 = icmp slt i32 %31, %.val.i28
  br i1 %.not.i.i.i29, label %32, label %Vec_IntGrow.exit.i.i30

32:                                               ; preds = %28
  %33 = getelementptr inbounds nuw i8, ptr %0, i64 192
  %34 = load ptr, ptr %33, align 8, !tbaa !12
  %.not9.i.i.i34 = icmp eq ptr %34, null
  %35 = sext i32 %.val.i28 to i64
  %36 = shl nsw i64 %35, 2
  br i1 %.not9.i.i.i34, label %39, label %37

37:                                               ; preds = %32
  %38 = tail call ptr @realloc(ptr noundef nonnull %34, i64 noundef %36) #24
  br label %41

39:                                               ; preds = %32
  %40 = tail call noalias ptr @malloc(i64 noundef %36) #23
  br label %41

41:                                               ; preds = %39, %37
  %42 = phi ptr [ %38, %37 ], [ %40, %39 ]
  store ptr %42, ptr %33, align 8, !tbaa !12
  store i32 %.val.i28, ptr %29, align 8, !tbaa !33
  br label %Vec_IntGrow.exit.i.i30

Vec_IntGrow.exit.i.i30:                           ; preds = %41, %28
  %43 = icmp sgt i32 %.val.i28, 0
  br i1 %43, label %.lr.ph.i.i32, label %Vec_IntFill.exit.i31

.lr.ph.i.i32:                                     ; preds = %Vec_IntGrow.exit.i.i30
  %44 = getelementptr inbounds nuw i8, ptr %0, i64 192
  %45 = load ptr, ptr %44, align 8, !tbaa !12
  %wide.trip.count.i.i33 = zext nneg i32 %.val.i28 to i64
  %46 = shl nuw nsw i64 %wide.trip.count.i.i33, 2
  tail call void @llvm.memset.p0.i64(ptr align 4 %45, i8 0, i64 %46, i1 false), !tbaa !13
  br label %Vec_IntFill.exit.i31

Vec_IntFill.exit.i31:                             ; preds = %.lr.ph.i.i32, %Vec_IntGrow.exit.i.i30
  %47 = getelementptr inbounds nuw i8, ptr %0, i64 188
  store i32 %.val.i28, ptr %47, align 4, !tbaa !26
  br label %Wln_NtkIncrementTravId.exit35

Wln_NtkIncrementTravId.exit35:                    ; preds = %Wln_NtkIncrementTravId.exit, %Vec_IntFill.exit.i31
  %48 = getelementptr i8, ptr %0, i64 28
  %49 = getelementptr i8, ptr %0, i64 60
  %.val2136 = load i32, ptr %48, align 4, !tbaa !26
  %.val2237 = load i32, ptr %49, align 4, !tbaa !26
  %50 = icmp sgt i32 %.val2136, %.val2237
  br i1 %50, label %.lr.ph, label %.critedge.preheader

.lr.ph:                                           ; preds = %Wln_NtkIncrementTravId.exit35
  %51 = getelementptr i8, ptr %0, i64 32
  %.val = load ptr, ptr %51, align 8, !tbaa !12
  %52 = getelementptr i8, ptr %0, i64 192
  %.val20 = load ptr, ptr %52, align 8, !tbaa !12
  br label %57

.critedge.preheader:                              ; preds = %57, %Wln_NtkIncrementTravId.exit35
  %.val2440 = phi i32 [ %.val2237, %Wln_NtkIncrementTravId.exit35 ], [ %.val22, %57 ]
  %53 = getelementptr i8, ptr %0, i64 44
  %.val2339 = load i32, ptr %53, align 4, !tbaa !26
  %54 = icmp sgt i32 %.val2339, %.val2440
  br i1 %54, label %.lr.ph42, label %.critedge2

.lr.ph42:                                         ; preds = %.critedge.preheader
  %55 = getelementptr i8, ptr %0, i64 48
  %56 = getelementptr i8, ptr %0, i64 88
  br label %66

57:                                               ; preds = %.lr.ph, %57
  %indvars.iv = phi i64 [ 0, %.lr.ph ], [ %indvars.iv.next, %57 ]
  %58 = getelementptr inbounds nuw i32, ptr %.val, i64 %indvars.iv
  %59 = load i32, ptr %58, align 4, !tbaa !13
  %.val19 = load i32, ptr %3, align 8, !tbaa !84
  %60 = add nsw i32 %.val19, -1
  %61 = sext i32 %59 to i64
  %62 = getelementptr inbounds i32, ptr %.val20, i64 %61
  store i32 %60, ptr %62, align 4, !tbaa !13
  %indvars.iv.next = add nuw nsw i64 %indvars.iv, 1
  %.val21 = load i32, ptr %48, align 4, !tbaa !26
  %.val22 = load i32, ptr %49, align 4, !tbaa !26
  %63 = sub nsw i32 %.val21, %.val22
  %64 = sext i32 %63 to i64
  %65 = icmp slt i64 %indvars.iv.next, %64
  br i1 %65, label %57, label %.critedge.preheader, !llvm.loop !88

66:                                               ; preds = %.lr.ph42, %Wln_ObjFanin0.exit
  %indvars.iv44 = phi i64 [ 0, %.lr.ph42 ], [ %indvars.iv.next45, %Wln_ObjFanin0.exit ]
  %.val25 = load ptr, ptr %55, align 8, !tbaa !12
  %67 = getelementptr inbounds nuw i32, ptr %.val25, i64 %indvars.iv44
  %68 = load i32, ptr %67, align 4, !tbaa !13
  %.val26 = load ptr, ptr %56, align 8, !tbaa !14
  %69 = sext i32 %68 to i64
  %70 = getelementptr inbounds %struct.Wln_Vec_t_, ptr %.val26, i64 %69, i32 1
  %71 = load i32, ptr %70, align 4, !tbaa !22
  %72 = icmp sgt i32 %71, 2
  %73 = getelementptr inbounds %struct.Wln_Vec_t_, ptr %.val26, i64 %69, i32 2
  br i1 %72, label %74, label %Wln_ObjFanin0.exit

74:                                               ; preds = %66
  %75 = load ptr, ptr %73, align 8, !tbaa !39
  br label %Wln_ObjFanin0.exit

Wln_ObjFanin0.exit:                               ; preds = %66, %74
  %.in.i.i = phi ptr [ %75, %74 ], [ %73, %66 ]
  %76 = load i32, ptr %.in.i.i, align 4, !tbaa !39
  %77 = tail call i32 @Wln_RetMarkPaths_rec(ptr noundef nonnull %0, i32 noundef %76, i32 noundef %1)
  %indvars.iv.next45 = add nuw nsw i64 %indvars.iv44, 1
  %.val23 = load i32, ptr %53, align 4, !tbaa !26
  %.val24 = load i32, ptr %49, align 4, !tbaa !26
  %78 = sub nsw i32 %.val23, %.val24
  %79 = sext i32 %78 to i64
  %80 = icmp slt i64 %indvars.iv.next45, %79
  br i1 %80, label %66, label %.critedge2, !llvm.loop !89

.critedge2:                                       ; preds = %Wln_ObjFanin0.exit, %.critedge.preheader
  ret void
}